target datalayout = "e-m:e-p270:32:32-p271:32:32-p272:64:64-i64:64-i128:128-f80:128-n8:16:32:64-S128"
target triple = "x86_64-pc-linux-gnu"

%"struct.Luau::BytecodeBuilder::ConstantKey" = type { i32, i64, i64 }
%"struct.Luau::BytecodeBuilder::Constant" = type { i32, %union.anon.82 }
%union.anon.82 = type { double, [8 x i8] }

@__const._ZN4Luau15BytecodeBuilder17addConstantNumberEd.c = private unnamed_addr constant { i32, [4 x i8], { i8, [15 x i8] } } { i32 2, [4 x i8] undef, { i8, [15 x i8] } { i8 0, [15 x i8] undef } }, align 8

; Function Attrs: mustprogress uwtable
define dso_local noundef i32 @_ZN4Luau15BytecodeBuilder17addConstantNumberEd(ptr noundef nonnull align 8 dereferenceable(840) %0, double noundef %1) #2 align 2 {
  %3 = alloca ptr, align 8
  %4 = alloca double, align 8
  %5 = alloca %"struct.Luau::BytecodeBuilder::Constant", align 8
  %6 = alloca %"struct.Luau::BytecodeBuilder::ConstantKey", align 8
  store ptr %0, ptr %3, align 8, !tbaa !35
  store double %1, ptr %4, align 8, !tbaa !259
  %7 = load ptr, ptr %3, align 8
  call void @llvm.lifetime.start.p0(i64 24, ptr %5) #19
  call void @llvm.memcpy.p0.p0.i64(ptr align 8 %5, ptr align 8 @__const._ZN4Luau15BytecodeBuilder17addConstantNumberEd.c, i64 24, i1 false)
  %8 = load double, ptr %4, align 8, !tbaa !259
  %9 = getelementptr inbounds nuw %"struct.Luau::BytecodeBuilder::Constant", ptr %5, i32 0, i32 1
  store double %8, ptr %9, align 8, !tbaa !220
  call void @llvm.lifetime.start.p0(i64 24, ptr %6) #19
  %10 = getelementptr inbounds nuw %"struct.Luau::BytecodeBuilder::ConstantKey", ptr %6, i32 0, i32 0
  store i32 2, ptr %10, align 8, !tbaa !25
  %11 = getelementptr inbounds nuw %"struct.Luau::BytecodeBuilder::ConstantKey", ptr %6, i32 0, i32 1
  store i64 0, ptr %11, align 8, !tbaa !29
  %12 = getelementptr inbounds nuw %"struct.Luau::BytecodeBuilder::ConstantKey", ptr %6, i32 0, i32 2
  store i64 0, ptr %12, align 8, !tbaa !139
  %13 = getelementptr inbounds nuw %"struct.Luau::BytecodeBuilder::ConstantKey", ptr %6, i32 0, i32 1
  call void @llvm.memcpy.p0.p0.i64(ptr align 8 %13, ptr align 8 %4, i64 8, i1 false)
  %14 = call noundef i32 @_ZN4Luau15BytecodeBuilder11addConstantERKNS0_11ConstantKeyERKNS0_8ConstantE(ptr noundef nonnull align 8 dereferenceable(840) %7, ptr noundef nonnull align 8 dereferenceable(24) %6, ptr noundef nonnull align 8 dereferenceable(24) %5)
  call void @llvm.lifetime.end.p0(i64 24, ptr %6) #19
  call void @llvm.lifetime.end.p0(i64 24, ptr %5) #19
  ret i32 %14
}