; Function Attrs: mustprogress uwtable
define dso_local noundef i32 @_ZN4Luau15BytecodeBuilder17addConstantNumberEd(ptr noundef nonnull align 8 dereferenceable(840) %0, double noundef %1) local_unnamed_addr #3 align 2 {
  %3 = alloca %"struct.Luau::BytecodeBuilder::Constant", align 8
  %4 = alloca %"struct.Luau::BytecodeBuilder::ConstantKey", align 8
  call void @llvm.lifetime.start.p0(i64 24, ptr nonnull %3) #33
  call void @llvm.memcpy.p0.p0.i64(ptr noundef nonnull align 8 dereferenceable(24) %3, ptr noundef nonnull align 8 dereferenceable(24) @__const._ZN4Luau15BytecodeBuilder17addConstantNumberEd.c, i64 24, i1 false)
  %5 = getelementptr inbounds nuw i8, ptr %3, i64 8
  store double %1, ptr %5, align 8, !tbaa !128
  call void @llvm.lifetime.start.p0(i64 24, ptr nonnull %4) #33
  store i32 2, ptr %4, align 8, !tbaa !15
  %6 = getelementptr inbounds nuw i8, ptr %4, i64 8
  %7 = getelementptr inbounds nuw i8, ptr %4, i64 16
  store i64 0, ptr %7, align 8
  store double %1, ptr %6, align 8
  %8 = call noundef i32 @_ZN4Luau15BytecodeBuilder11addConstantERKNS0_11ConstantKeyERKNS0_8ConstantE(ptr noundef nonnull align 8 dereferenceable(840) %0, ptr noundef nonnull align 8 dereferenceable(24) %4, ptr noundef nonnull align 8 dereferenceable(24) %3)
  call void @llvm.lifetime.end.p0(i64 24, ptr nonnull %4) #33
  call void @llvm.lifetime.end.p0(i64 24, ptr nonnull %3) #33
  ret i32 %8
}